target datalayout = "e-m:e-p270:32:32-p271:32:32-p272:64:64-i64:64-i128:128-f80:128-n8:16:32:64-S128"
target triple = "x86_64-pc-linux-gnu"

%"class.icu_77::UnicodeString" = type { %"class.icu_77::Replaceable", %"union.icu_77::UnicodeString::StackBufferOrFields" }
%"class.icu_77::Replaceable" = type { %"class.icu_77::UObject" }
%"class.icu_77::UObject" = type { ptr }
%"union.icu_77::UnicodeString::StackBufferOrFields" = type { %struct.anon.0, [32 x i8] }
%struct.anon.0 = type { i16, i32, i32, ptr }
%"class.icu_77::DateIntervalFormat" = type <{ %"class.icu_77::Format", ptr, ptr, ptr, ptr, %"class.icu_77::Locale", %"class.icu_77::UnicodeString", [9 x %"struct.icu_77::DateIntervalFormat::PatternInfo"], ptr, ptr, ptr, i32, [4 x i8] }>
%"class.icu_77::Format" = type { %"class.icu_77::UObject", ptr, ptr }
%"class.icu_77::Locale" = type <{ %"class.icu_77::UObject", [12 x i8], [6 x i8], [4 x i8], [2 x i8], i32, [4 x i8], ptr, [157 x i8], [3 x i8], ptr, i8, [7 x i8] }>
%"struct.icu_77::DateIntervalFormat::PatternInfo" = type <{ %"class.icu_77::UnicodeString", %"class.icu_77::UnicodeString", i8, [7 x i8] }>
%struct.anon = type { i16, [27 x i16] }

@_ZTVN6icu_777UObjectE = available_externally unnamed_addr constant { [5 x ptr] } { [5 x ptr] [ptr null, ptr @_ZTIN6icu_777UObjectE, ptr @_ZN6icu_777UObjectD1Ev, ptr @_ZN6icu_777UObjectD0Ev, ptr @_ZNK6icu_777UObject17getDynamicClassIDEv] }, align 8

; Function Attrs: inlinehint mustprogress nounwind uwtable
define linkonce_odr void @_ZN6icu_777UObjectC2Ev(ptr noundef nonnull align 8 dereferenceable(8) %0) unnamed_addr #2 comdat align 2 {
  %2 = alloca ptr, align 8
  store ptr %0, ptr %2, align 8, !tbaa !87
  %3 = load ptr, ptr %2, align 8
  store ptr getelementptr inbounds inrange(-16, 24) ({ [5 x ptr] }, ptr @_ZTVN6icu_777UObjectE, i32 0, i32 0, i32 2), ptr %3, align 8, !tbaa !27
  ret void
}

; Function Attrs: inlinehint mustprogress nounwind uwtable
define linkonce_odr void @_ZN6icu_7711ReplaceableC2Ev(ptr noundef nonnull align 8 dereferenceable(8) %0) unnamed_addr #2 comdat align 2 {
  %2 = alloca ptr, align 8
  store ptr %0, ptr %2, align 8, !tbaa !169
  %3 = load ptr, ptr %2, align 8
  call void @_ZN6icu_777UObjectC2Ev(ptr noundef nonnull align 8 dereferenceable(8) %3) #12
  store ptr getelementptr inbounds inrange(-16, 88) ({ [13 x ptr] }, ptr @_ZTVN6icu_7711ReplaceableE, i32 0, i32 0, i32 2), ptr %3, align 8, !tbaa !27
  ret void
}

; Function Attrs: inlinehint mustprogress nounwind uwtable
define linkonce_odr void @_ZN6icu_7718DateIntervalFormat11PatternInfoD2Ev(ptr noundef nonnull align 8 dereferenceable(129) %0) unnamed_addr #2 comdat align 2 {
  %2 = alloca ptr, align 8
  store ptr %0, ptr %2, align 8, !tbaa !66
  %3 = load ptr, ptr %2, align 8
  %4 = getelementptr inbounds nuw %"struct.icu_77::DateIntervalFormat::PatternInfo", ptr %3, i32 0, i32 1
  call void @_ZN6icu_7713UnicodeStringD1Ev(ptr noundef nonnull align 8 dereferenceable(64) %4) #12
  %5 = getelementptr inbounds nuw %"struct.icu_77::DateIntervalFormat::PatternInfo", ptr %3, i32 0, i32 0
  call void @_ZN6icu_7713UnicodeStringD1Ev(ptr noundef nonnull align 8 dereferenceable(64) %5) #12
  ret void
}

; Function Attrs: inlinehint mustprogress uwtable
define linkonce_odr void @_ZN6icu_7718DateIntervalFormat11PatternInfoC2Ev(ptr noundef nonnull align 8 dereferenceable(129) %0) unnamed_addr #3 comdat align 2 personality ptr @__gxx_personality_v0 {
  %2 = alloca ptr, align 8
  %3 = alloca ptr, align 8
  %4 = alloca i32, align 4
  store ptr %0, ptr %2, align 8, !tbaa !66
  %5 = load ptr, ptr %2, align 8
  %6 = getelementptr inbounds nuw %"struct.icu_77::DateIntervalFormat::PatternInfo", ptr %5, i32 0, i32 0
  call void @_ZN6icu_7713UnicodeStringC2Ev(ptr noundef nonnull align 8 dereferenceable(64) %6)
  %7 = getelementptr inbounds nuw %"struct.icu_77::DateIntervalFormat::PatternInfo", ptr %5, i32 0, i32 1
  invoke void @_ZN6icu_7713UnicodeStringC2Ev(ptr noundef nonnull align 8 dereferenceable(64) %7)
          to label %8 unwind label %9

8:                                                ; preds = %1
  ret void

9:                                                ; preds = %1
  %10 = landingpad { ptr, i32 }
          cleanup
  %11 = extractvalue { ptr, i32 } %10, 0
  store ptr %11, ptr %3, align 8
  %12 = extractvalue { ptr, i32 } %10, 1
  store i32 %12, ptr %4, align 4
  call void @_ZN6icu_7713UnicodeStringD1Ev(ptr noundef nonnull align 8 dereferenceable(64) %6) #12
  br label %13

13:                                               ; preds = %9
  %14 = load ptr, ptr %3, align 8
  %15 = load i32, ptr %4, align 4
  %16 = insertvalue { ptr, i32 } poison, ptr %14, 0
  %17 = insertvalue { ptr, i32 } %16, i32 %15, 1
  resume { ptr, i32 } %17
}

; Function Attrs: inlinehint mustprogress uwtable
define linkonce_odr void @_ZN6icu_7713UnicodeStringC2Ev(ptr noundef nonnull align 8 dereferenceable(64) %0) unnamed_addr #3 comdat align 2 {
  %2 = alloca ptr, align 8
  store ptr %0, ptr %2, align 8, !tbaa !41
  %3 = load ptr, ptr %2, align 8
  call void @_ZN6icu_7711ReplaceableC2Ev(ptr noundef nonnull align 8 dereferenceable(8) %3)
  store ptr getelementptr inbounds inrange(-16, 88) ({ [13 x ptr] }, ptr @_ZTVN6icu_7713UnicodeStringE, i32 0, i32 0, i32 2), ptr %3, align 8, !tbaa !27
  %4 = getelementptr inbounds nuw %"class.icu_77::UnicodeString", ptr %3, i32 0, i32 1
  %5 = getelementptr inbounds nuw %struct.anon, ptr %4, i32 0, i32 0
  store i16 2, ptr %5, align 8, !tbaa !65
  ret void
}

; Function Attrs: mustprogress uwtable
define void @_ZN6icu_7718DateIntervalFormatC2Ev(ptr noundef nonnull align 8 dereferenceable(1596) %0) unnamed_addr #1 align 2 personality ptr @__gxx_personality_v0 {
  %2 = alloca ptr, align 8
  %3 = alloca ptr, align 8
  %4 = alloca i32, align 4
  store ptr %0, ptr %2, align 8, !tbaa !39
  %5 = load ptr, ptr %2, align 8
  call void @_ZN6icu_776FormatC2Ev(ptr noundef nonnull align 8 dereferenceable(24) %5)
  store ptr getelementptr inbounds inrange(-16, 104) ({ [15 x ptr] }, ptr @_ZTVN6icu_7718DateIntervalFormatE, i32 0, i32 0, i32 2), ptr %5, align 8, !tbaa !27
  %6 = getelementptr inbounds nuw %"class.icu_77::DateIntervalFormat", ptr %5, i32 0, i32 1
  store ptr null, ptr %6, align 8, !tbaa !47
  %7 = getelementptr inbounds nuw %"class.icu_77::DateIntervalFormat", ptr %5, i32 0, i32 2
  store ptr null, ptr %7, align 8, !tbaa !58
  %8 = getelementptr inbounds nuw %"class.icu_77::DateIntervalFormat", ptr %5, i32 0, i32 3
  store ptr null, ptr %8, align 8, !tbaa !59
  %9 = getelementptr inbounds nuw %"class.icu_77::DateIntervalFormat", ptr %5, i32 0, i32 4
  store ptr null, ptr %9, align 8, !tbaa !60
  %10 = getelementptr inbounds nuw %"class.icu_77::DateIntervalFormat", ptr %5, i32 0, i32 5
  %11 = invoke noundef nonnull align 8 dereferenceable(217) ptr @_ZN6icu_776Locale7getRootEv()
          to label %12 unwind label %29

12:                                               ; preds = %1
  invoke void @_ZN6icu_776LocaleC1ERKS0_(ptr noundef nonnull align 8 dereferenceable(217) %10, ptr noundef nonnull align 8 dereferenceable(217) %11)
          to label %13 unwind label %29

13:                                               ; preds = %12
  %14 = getelementptr inbounds nuw %"class.icu_77::DateIntervalFormat", ptr %5, i32 0, i32 6
  invoke void @_ZN6icu_7713UnicodeStringC2Ev(ptr noundef nonnull align 8 dereferenceable(64) %14)
          to label %15 unwind label %33

15:                                               ; preds = %13
  %16 = getelementptr inbounds nuw %"class.icu_77::DateIntervalFormat", ptr %5, i32 0, i32 7
  %17 = getelementptr inbounds [9 x %"struct.icu_77::DateIntervalFormat::PatternInfo"], ptr %16, i32 0, i32 0
  %18 = getelementptr inbounds %"struct.icu_77::DateIntervalFormat::PatternInfo", ptr %17, i64 9
  br label %19

19:                                               ; preds = %21, %15
  %20 = phi ptr [ %17, %15 ], [ %22, %21 ]
  invoke void @_ZN6icu_7718DateIntervalFormat11PatternInfoC2Ev(ptr noundef nonnull align 8 dereferenceable(129) %20)
          to label %21 unwind label %37

21:                                               ; preds = %19
  %22 = getelementptr inbounds %"struct.icu_77::DateIntervalFormat::PatternInfo", ptr %20, i64 1
  %23 = icmp eq ptr %22, %18
  br i1 %23, label %24, label %19

24:                                               ; preds = %21
  %25 = getelementptr inbounds nuw %"class.icu_77::DateIntervalFormat", ptr %5, i32 0, i32 8
  store ptr null, ptr %25, align 8, !tbaa !61
  %26 = getelementptr inbounds nuw %"class.icu_77::DateIntervalFormat", ptr %5, i32 0, i32 9
  store ptr null, ptr %26, align 8, !tbaa !62
  %27 = getelementptr inbounds nuw %"class.icu_77::DateIntervalFormat", ptr %5, i32 0, i32 10
  store ptr null, ptr %27, align 8, !tbaa !63
  %28 = getelementptr inbounds nuw %"class.icu_77::DateIntervalFormat", ptr %5, i32 0, i32 11
  store i32 256, ptr %28, align 8, !tbaa !64
  ret void

29:                                               ; preds = %12, %1
  %30 = landingpad { ptr, i32 }
          cleanup
  %31 = extractvalue { ptr, i32 } %30, 0
  store ptr %31, ptr %3, align 8
  %32 = extractvalue { ptr, i32 } %30, 1
  store i32 %32, ptr %4, align 4
  br label %48

33:                                               ; preds = %13
  %34 = landingpad { ptr, i32 }
          cleanup
  %35 = extractvalue { ptr, i32 } %34, 0
  store ptr %35, ptr %3, align 8
  %36 = extractvalue { ptr, i32 } %34, 1
  store i32 %36, ptr %4, align 4
  br label %47

37:                                               ; preds = %19
  %38 = landingpad { ptr, i32 }
          cleanup
  %39 = extractvalue { ptr, i32 } %38, 0
  store ptr %39, ptr %3, align 8
  %40 = extractvalue { ptr, i32 } %38, 1
  store i32 %40, ptr %4, align 4
  %41 = icmp eq ptr %17, %20
  br i1 %41, label %46, label %42

42:                                               ; preds = %42, %37
  %43 = phi ptr [ %20, %37 ], [ %44, %42 ]
  %44 = getelementptr inbounds %"struct.icu_77::DateIntervalFormat::PatternInfo", ptr %43, i64 -1
  call void @_ZN6icu_7718DateIntervalFormat11PatternInfoD2Ev(ptr noundef nonnull align 8 dereferenceable(129) %44) #12
  %45 = icmp eq ptr %44, %17
  br i1 %45, label %46, label %42

46:                                               ; preds = %42, %37
  call void @_ZN6icu_7713UnicodeStringD1Ev(ptr noundef nonnull align 8 dereferenceable(64) %14) #12
  br label %47

47:                                               ; preds = %46, %33
  call void @_ZN6icu_776LocaleD1Ev(ptr noundef nonnull align 8 dereferenceable(217) %10) #12
  br label %48

48:                                               ; preds = %47, %29
  call void @_ZN6icu_776FormatD2Ev(ptr noundef nonnull align 8 dereferenceable(24) %5) #12
  br label %49

49:                                               ; preds = %48
  %50 = load ptr, ptr %3, align 8
  %51 = load i32, ptr %4, align 4
  %52 = insertvalue { ptr, i32 } poison, ptr %50, 0
  %53 = insertvalue { ptr, i32 } %52, i32 %51, 1
  resume { ptr, i32 } %53
}