; Function Attrs: mustprogress uwtable
define void @_ZN6icu_7718DateIntervalFormatC2Ev(ptr noundef nonnull align 8 dereferenceable(1596) %0) unnamed_addr #1 align 2 personality ptr @__gxx_personality_v0 {
  tail call void @_ZN6icu_776FormatC2Ev(ptr noundef nonnull align 8 dereferenceable(24) %0)
  store ptr getelementptr inbounds nuw inrange(-16, 104) (i8, ptr @_ZTVN6icu_7718DateIntervalFormatE, i64 16), ptr %0, align 8, !tbaa !15
  %2 = getelementptr inbounds nuw i8, ptr %0, i64 24
  tail call void @llvm.memset.p0.i64(ptr noundef nonnull align 8 dereferenceable(32) %2, i8 0, i64 32, i1 false)
  %3 = invoke noundef nonnull align 8 dereferenceable(217) ptr @_ZN6icu_776Locale7getRootEv()
          to label %4 unwind label %17

4:                                                ; preds = %1
  %5 = getelementptr inbounds nuw i8, ptr %0, i64 56
  invoke void @_ZN6icu_776LocaleC1ERKS0_(ptr noundef nonnull align 8 dereferenceable(217) %5, ptr noundef nonnull align 8 dereferenceable(217) %3)
          to label %6 unwind label %17

6:                                                ; preds = %4
  %7 = getelementptr inbounds nuw i8, ptr %0, i64 280
  store ptr getelementptr inbounds nuw inrange(-16, 88) (i8, ptr @_ZTVN6icu_7713UnicodeStringE, i64 16), ptr %7, align 8, !tbaa !15
  %8 = getelementptr inbounds nuw i8, ptr %0, i64 288
  store i16 2, ptr %8, align 8, !tbaa !25
  br label %9

9:                                                ; preds = %9, %6
  %.idx = phi i64 [ %.add, %9 ], [ 344, %6 ]
  %.ptr.ptr = getelementptr inbounds nuw i8, ptr %0, i64 %.idx
  store ptr getelementptr inbounds nuw inrange(-16, 88) (i8, ptr @_ZTVN6icu_7713UnicodeStringE, i64 16), ptr %.ptr.ptr, align 8, !tbaa !15
  %10 = getelementptr inbounds nuw i8, ptr %.ptr.ptr, i64 8
  store i16 2, ptr %10, align 8, !tbaa !25
  %11 = getelementptr inbounds nuw i8, ptr %.ptr.ptr, i64 64
  store ptr getelementptr inbounds nuw inrange(-16, 88) (i8, ptr @_ZTVN6icu_7713UnicodeStringE, i64 16), ptr %11, align 8, !tbaa !15
  %12 = getelementptr inbounds nuw i8, ptr %.ptr.ptr, i64 72
  store i16 2, ptr %12, align 8, !tbaa !25
  %.add = add nuw nsw i64 %.idx, 136
  %13 = icmp samesign eq i64 %.add, 1568
  br i1 %13, label %14, label %9

14:                                               ; preds = %9
  %15 = getelementptr inbounds nuw i8, ptr %0, i64 1568
  %16 = getelementptr inbounds nuw i8, ptr %0, i64 1592
  tail call void @llvm.memset.p0.i64(ptr noundef nonnull align 8 dereferenceable(24) %15, i8 0, i64 24, i1 false)
  store i32 256, ptr %16, align 8, !tbaa !35
  ret void

17:                                               ; preds = %4, %1
  %18 = landingpad { ptr, i32 }
          cleanup
  tail call void @_ZN6icu_776FormatD2Ev(ptr noundef nonnull align 8 dereferenceable(24) %0) #19
  resume { ptr, i32 } %18
}